; Function Attrs: mustprogress nofree nounwind uwtable
define noundef nonnull align 4 dereferenceable(8) ptr @_ZNK32pxrInternal_v0_24__pxrReserved__7SdfPath13GetTargetPathEv(ptr nocapture noundef nonnull readonly align 4 dereferenceable(8) %0) local_unnamed_addr #4 align 2 personality ptr @__gxx_personality_v0 {
  %2 = getelementptr inbounds nuw i8, ptr %0, i64 4
  %3 = load i32, ptr %2, align 4
  %.not = icmp eq i32 %3, 0
  br i1 %.not, label %4, label %11

4:                                                ; preds = %1
  %5 = load atomic i8, ptr @_ZGVZN32pxrInternal_v0_24__pxrReserved__7SdfPath9EmptyPathEvE12theEmptyPath acquire, align 8
  %6 = icmp eq i8 %5, 0
  br i1 %6, label %7, label %_ZN32pxrInternal_v0_24__pxrReserved__7SdfPath9EmptyPathEv.exit, !prof !6

7:                                                ; preds = %4
  %8 = tail call i32 @__cxa_guard_acquire(ptr nonnull @_ZGVZN32pxrInternal_v0_24__pxrReserved__7SdfPath9EmptyPathEvE12theEmptyPath) #20
  %.not.i = icmp eq i32 %8, 0
  br i1 %.not.i, label %_ZN32pxrInternal_v0_24__pxrReserved__7SdfPath9EmptyPathEv.exit, label %9

9:                                                ; preds = %7
  %10 = tail call i32 @__cxa_atexit(ptr nonnull @_ZN32pxrInternal_v0_24__pxrReserved__7SdfPathD2Ev, ptr nonnull @_ZZN32pxrInternal_v0_24__pxrReserved__7SdfPath9EmptyPathEvE12theEmptyPath, ptr nonnull @__dso_handle) #20
  tail call void @__cxa_guard_release(ptr nonnull @_ZGVZN32pxrInternal_v0_24__pxrReserved__7SdfPath9EmptyPathEvE12theEmptyPath) #20
  br label %_ZN32pxrInternal_v0_24__pxrReserved__7SdfPath9EmptyPathEv.exit

11:                                               ; preds = %1
  %12 = and i32 %3, 255
  %13 = zext nneg i32 %12 to i64
  %14 = getelementptr inbounds [257 x ptr], ptr @_ZN32pxrInternal_v0_24__pxrReserved__8Sdf_PoolINS_15Sdf_PathPropTagELj24ELj8ELj16384EE13_regionStartsE, i64 0, i64 %13
  %15 = load ptr, ptr %14, align 8
  %.not.i5 = icmp eq ptr %15, null
  br i1 %.not.i5, label %.loopexit, label %16

16:                                               ; preds = %11
  %17 = lshr i32 %3, 8
  %18 = mul nuw nsw i32 %17, 24
  %19 = zext nneg i32 %18 to i64
  %20 = getelementptr inbounds i8, ptr %15, i64 %19
  %21 = getelementptr inbounds nuw i8, ptr %20, i64 15
  %22 = load i8, ptr %21, align 1
  %23 = and i8 %22, 4
  %.not13.i = icmp eq i8 %23, 0
  br i1 %.not13.i, label %.loopexit, label %.preheader.i

.preheader.i:                                     ; preds = %16, %27
  %.014.i = phi ptr [ %28, %27 ], [ %20, %16 ]
  %24 = getelementptr inbounds nuw i8, ptr %.014.i, i64 14
  %25 = load i8, ptr %24, align 2
  %26 = and i8 %25, -2
  %switch.i = icmp eq i8 %26, 4
  br i1 %switch.i, label %_ZN32pxrInternal_v0_24__pxrReserved__L18_GetNextTargetNodeEPKNS_12Sdf_PathNodeE.exit, label %27

27:                                               ; preds = %.preheader.i
  %28 = load ptr, ptr %.014.i, align 8
  %.not10.i = icmp eq ptr %28, null
  br i1 %.not10.i, label %.loopexit, label %.preheader.i, !llvm.loop !34

_ZN32pxrInternal_v0_24__pxrReserved__L18_GetNextTargetNodeEPKNS_12Sdf_PathNodeE.exit: ; preds = %.preheader.i
  %29 = getelementptr inbounds nuw i8, ptr %.014.i, i64 16
  br label %_ZN32pxrInternal_v0_24__pxrReserved__7SdfPath9EmptyPathEv.exit

.loopexit:                                        ; preds = %27, %16, %11
  %30 = load atomic i8, ptr @_ZGVZN32pxrInternal_v0_24__pxrReserved__7SdfPath9EmptyPathEvE12theEmptyPath acquire, align 8
  %31 = icmp eq i8 %30, 0
  br i1 %31, label %32, label %_ZN32pxrInternal_v0_24__pxrReserved__7SdfPath9EmptyPathEv.exit, !prof !6

32:                                               ; preds = %.loopexit
  %33 = tail call i32 @__cxa_guard_acquire(ptr nonnull @_ZGVZN32pxrInternal_v0_24__pxrReserved__7SdfPath9EmptyPathEvE12theEmptyPath) #20
  %.not.i6 = icmp eq i32 %33, 0
  br i1 %.not.i6, label %_ZN32pxrInternal_v0_24__pxrReserved__7SdfPath9EmptyPathEv.exit, label %34

34:                                               ; preds = %32
  %35 = tail call i32 @__cxa_atexit(ptr nonnull @_ZN32pxrInternal_v0_24__pxrReserved__7SdfPathD2Ev, ptr nonnull @_ZZN32pxrInternal_v0_24__pxrReserved__7SdfPath9EmptyPathEvE12theEmptyPath, ptr nonnull @__dso_handle) #20
  tail call void @__cxa_guard_release(ptr nonnull @_ZGVZN32pxrInternal_v0_24__pxrReserved__7SdfPath9EmptyPathEvE12theEmptyPath) #20
  br label %_ZN32pxrInternal_v0_24__pxrReserved__7SdfPath9EmptyPathEv.exit

_ZN32pxrInternal_v0_24__pxrReserved__7SdfPath9EmptyPathEv.exit: ; preds = %_ZN32pxrInternal_v0_24__pxrReserved__L18_GetNextTargetNodeEPKNS_12Sdf_PathNodeE.exit, %34, %32, %.loopexit, %9, %7, %4
  %.0 = phi ptr [ @_ZZN32pxrInternal_v0_24__pxrReserved__7SdfPath9EmptyPathEvE12theEmptyPath, %4 ], [ @_ZZN32pxrInternal_v0_24__pxrReserved__7SdfPath9EmptyPathEvE12theEmptyPath, %7 ], [ @_ZZN32pxrInternal_v0_24__pxrReserved__7SdfPath9EmptyPathEvE12theEmptyPath, %9 ], [ @_ZZN32pxrInternal_v0_24__pxrReserved__7SdfPath9EmptyPathEvE12theEmptyPath, %.loopexit ], [ @_ZZN32pxrInternal_v0_24__pxrReserved__7SdfPath9EmptyPathEvE12theEmptyPath, %32 ], [ @_ZZN32pxrInternal_v0_24__pxrReserved__7SdfPath9EmptyPathEvE12theEmptyPath, %34 ], [ %29, %_ZN32pxrInternal_v0_24__pxrReserved__L18_GetNextTargetNodeEPKNS_12Sdf_PathNodeE.exit ]
  ret ptr %.0
}